target datalayout = "e-m:e-p270:32:32-p271:32:32-p272:64:64-i64:64-i128:128-f80:128-n8:16:32:64-S128"
target triple = "x86_64-pc-linux-gnu"

%struct._zval_struct = type { %union._zend_value, %union.anon, %union.anon.2 }
%union._zend_value = type { i64 }
%union.anon = type { i32 }
%union.anon.2 = type { i32 }
%struct._zend_refcounted_h = type { i32, %union.anon.3 }
%union.anon.3 = type { i32 }
%struct._zend_string = type { %struct._zend_refcounted_h, i64, i64, [1 x i8] }

; Function Attrs: nounwind uwtable
define internal void @sxe_property_delete(ptr noundef %0, ptr noundef %1, ptr noundef %2) #0 {
  %4 = alloca i32, align 4
  %5 = alloca ptr, align 8
  %6 = alloca ptr, align 8
  %7 = alloca ptr, align 8
  %8 = alloca %struct._zval_struct, align 8
  %9 = alloca ptr, align 8
  %10 = alloca ptr, align 8
  store ptr %0, ptr %5, align 8
  store ptr %1, ptr %6, align 8
  store ptr %2, ptr %7, align 8
  br label %11

11:                                               ; preds = %3
  store ptr %8, ptr %9, align 8
  %12 = load ptr, ptr %6, align 8
  store ptr %12, ptr %10, align 8
  %13 = load ptr, ptr %10, align 8
  %14 = load ptr, ptr %9, align 8
  %15 = getelementptr inbounds %struct._zval_struct, ptr %14, i32 0, i32 0
  store ptr %13, ptr %15, align 8
  %16 = load ptr, ptr %10, align 8
  %17 = getelementptr inbounds %struct._zend_string, ptr %16, i32 0, i32 0
  %18 = getelementptr inbounds %struct._zend_refcounted_h, ptr %17, i32 0, i32 1
  %19 = load i32, ptr %18, align 4
  store i32 %19, ptr %4, align 4
  %20 = load i32, ptr %4, align 4
  %21 = and i32 %20, 1008
  %22 = and i32 %21, 64
  %23 = icmp ne i32 %22, 0
  %24 = select i1 %23, i32 6, i32 262
  %25 = load ptr, ptr %9, align 8
  %26 = getelementptr inbounds %struct._zval_struct, ptr %25, i32 0, i32 1
  store i32 %24, ptr %26, align 8
  br label %27

27:                                               ; preds = %11
  %28 = load ptr, ptr %5, align 8
  call void @sxe_prop_dim_delete(ptr noundef %28, ptr noundef %8, i1 noundef zeroext true, i1 noundef zeroext false)
  ret void
}