; Function Attrs: nounwind uwtable
define internal void @sxe_property_delete(ptr nocapture noundef %0, ptr noundef %1, ptr nocapture readnone %2) #1 {
  %4 = alloca %struct._zval_struct, align 8
  store ptr %1, ptr %4, align 8
  %5 = getelementptr inbounds i8, ptr %1, i64 4
  %6 = load i32, ptr %5, align 4
  %7 = and i32 %6, 64
  %.not = icmp eq i32 %7, 0
  %8 = select i1 %.not, i32 262, i32 6
  %9 = getelementptr inbounds i8, ptr %4, i64 8
  store i32 %8, ptr %9, align 8
  call fastcc void @sxe_prop_dim_delete(ptr noundef %0, ptr noundef nonnull %4, i1 noundef zeroext true, i1 noundef zeroext false)
  ret void
}